; Function Attrs: mustprogress uwtable
define noundef double @_ZNK5Ipopt6Vector15FracToBoundImplERKS0_d(ptr noundef nonnull align 8 dereferenceable(205) %0, ptr noundef nonnull align 8 dereferenceable(205) %1, double noundef %2) unnamed_addr #0 align 2 personality ptr @__gxx_personality_v0 {
  %4 = getelementptr inbounds i8, ptr %0, i64 56
  %5 = load ptr, ptr %4, align 8
  %6 = getelementptr inbounds i8, ptr %5, i64 12
  %7 = load i32, ptr %6, align 4
  %8 = icmp eq i32 %7, 0
  br i1 %8, label %9, label %15

9:                                                ; preds = %3
  %10 = getelementptr inbounds i8, ptr %1, i64 56
  %11 = load ptr, ptr %10, align 8
  %12 = getelementptr inbounds i8, ptr %11, i64 12
  %13 = load i32, ptr %12, align 4
  %14 = icmp eq i32 %13, 0
  br i1 %14, label %_ZN5Ipopt8SmartPtrINS_6VectorEED2Ev.exit17, label %15

15:                                               ; preds = %9, %3
  %16 = load ptr, ptr %5, align 8
  %17 = getelementptr inbounds i8, ptr %16, i64 16
  %18 = load ptr, ptr %17, align 8
  %19 = tail call noundef ptr %18(ptr noundef nonnull align 8 dereferenceable(16) %5)
  %.not.i.i = icmp eq ptr %19, null
  br i1 %.not.i.i, label %_ZN5Ipopt8SmartPtrINS_6VectorEEC2EPS1_.exit, label %20

20:                                               ; preds = %15
  %21 = getelementptr inbounds i8, ptr %19, i64 8
  %22 = load i32, ptr %21, align 8
  %23 = add nsw i32 %22, 1
  store i32 %23, ptr %21, align 8
  br label %_ZN5Ipopt8SmartPtrINS_6VectorEEC2EPS1_.exit

_ZN5Ipopt8SmartPtrINS_6VectorEEC2EPS1_.exit:      ; preds = %20, %15
  %24 = fdiv double -1.000000e+00, %2
  %25 = load ptr, ptr %19, align 8
  %26 = getelementptr inbounds i8, ptr %25, i64 192
  %27 = load ptr, ptr %26, align 8
  invoke void %27(ptr noundef nonnull align 8 dereferenceable(205) %19, double noundef %24, ptr noundef nonnull align 8 dereferenceable(205) %1, double noundef 0.000000e+00, ptr noundef nonnull align 8 dereferenceable(205) %1, double noundef 0.000000e+00)
          to label %.noexc unwind label %47

.noexc:                                           ; preds = %_ZN5Ipopt8SmartPtrINS_6VectorEEC2EPS1_.exit
  invoke void @_ZN5Ipopt12TaggedObject13ObjectChangedEv(ptr noundef nonnull align 8 dereferenceable(56) %19)
          to label %_ZN5Ipopt6Vector12AddOneVectorEdRKS0_d.exit unwind label %47

_ZN5Ipopt6Vector12AddOneVectorEdRKS0_d.exit:      ; preds = %.noexc
  %28 = load ptr, ptr %19, align 8
  %29 = getelementptr inbounds i8, ptr %28, i64 80
  %30 = load ptr, ptr %29, align 8
  invoke void %30(ptr noundef nonnull align 8 dereferenceable(205) %19, ptr noundef nonnull align 8 dereferenceable(205) %0)
          to label %.noexc12 unwind label %47

.noexc12:                                         ; preds = %_ZN5Ipopt6Vector12AddOneVectorEdRKS0_d.exit
  invoke void @_ZN5Ipopt12TaggedObject13ObjectChangedEv(ptr noundef nonnull align 8 dereferenceable(56) %19)
          to label %_ZN5Ipopt6Vector17ElementWiseDivideERKS0_.exit unwind label %47

_ZN5Ipopt6Vector17ElementWiseDivideERKS0_.exit:   ; preds = %.noexc12
  %31 = getelementptr inbounds i8, ptr %19, i64 136
  %32 = load i32, ptr %31, align 8
  %33 = getelementptr inbounds i8, ptr %19, i64 48
  %34 = load i32, ptr %33, align 8
  %.not.i = icmp eq i32 %32, %34
  br i1 %.not.i, label %._crit_edge.i, label %35

._crit_edge.i:                                    ; preds = %_ZN5Ipopt6Vector17ElementWiseDivideERKS0_.exit
  %.phi.trans.insert.i = getelementptr inbounds i8, ptr %19, i64 144
  %.pre.i = load double, ptr %.phi.trans.insert.i, align 8
  br label %_ZNK5Ipopt6Vector3MaxEv.exit

35:                                               ; preds = %_ZN5Ipopt6Vector17ElementWiseDivideERKS0_.exit
  %36 = load ptr, ptr %19, align 8
  %37 = getelementptr inbounds i8, ptr %36, i64 160
  %38 = load ptr, ptr %37, align 8
  %39 = invoke noundef double %38(ptr noundef nonnull align 8 dereferenceable(205) %19)
          to label %.noexc14 unwind label %47

.noexc14:                                         ; preds = %35
  %40 = getelementptr inbounds i8, ptr %19, i64 144
  store double %39, ptr %40, align 8
  %41 = load i32, ptr %33, align 8
  store i32 %41, ptr %31, align 8
  br label %_ZNK5Ipopt6Vector3MaxEv.exit

_ZNK5Ipopt6Vector3MaxEv.exit:                     ; preds = %.noexc14, %._crit_edge.i
  %42 = phi double [ %.pre.i, %._crit_edge.i ], [ %39, %.noexc14 ]
  %43 = fcmp ogt double %42, 0.000000e+00
  br i1 %43, label %44, label %57

44:                                               ; preds = %_ZNK5Ipopt6Vector3MaxEv.exit
  %45 = fdiv double 1.000000e+00, %42
  %46 = fcmp ogt double %45, 1.000000e+00
  %.sroa.speculated.i = select i1 %46, double 1.000000e+00, double %45
  br label %57

47:                                               ; preds = %_ZN5Ipopt8SmartPtrINS_6VectorEEC2EPS1_.exit, %.noexc, %_ZN5Ipopt6Vector12AddOneVectorEdRKS0_d.exit, %.noexc12, %35
  %48 = landingpad { ptr, i32 }
          cleanup
  %49 = getelementptr inbounds i8, ptr %19, i64 8
  %50 = load i32, ptr %49, align 8
  %51 = add nsw i32 %50, -1
  store i32 %51, ptr %49, align 8
  %52 = icmp eq i32 %51, 0
  br i1 %52, label %53, label %_ZN5Ipopt8SmartPtrINS_6VectorEED2Ev.exit

53:                                               ; preds = %47
  %54 = load ptr, ptr %19, align 8
  %55 = getelementptr inbounds i8, ptr %54, i64 8
  %56 = load ptr, ptr %55, align 8
  tail call void %56(ptr noundef nonnull align 8 dereferenceable(205) %19) #10
  br label %_ZN5Ipopt8SmartPtrINS_6VectorEED2Ev.exit

_ZN5Ipopt8SmartPtrINS_6VectorEED2Ev.exit:         ; preds = %47, %53
  resume { ptr, i32 } %48

57:                                               ; preds = %_ZNK5Ipopt6Vector3MaxEv.exit, %44
  %.0 = phi double [ %.sroa.speculated.i, %44 ], [ 1.000000e+00, %_ZNK5Ipopt6Vector3MaxEv.exit ]
  %58 = getelementptr inbounds i8, ptr %19, i64 8
  %59 = load i32, ptr %58, align 8
  %60 = add nsw i32 %59, -1
  store i32 %60, ptr %58, align 8
  %61 = icmp eq i32 %60, 0
  br i1 %61, label %62, label %_ZN5Ipopt8SmartPtrINS_6VectorEED2Ev.exit17

62:                                               ; preds = %57
  %63 = load ptr, ptr %19, align 8
  %64 = getelementptr inbounds i8, ptr %63, i64 8
  %65 = load ptr, ptr %64, align 8
  tail call void %65(ptr noundef nonnull align 8 dereferenceable(205) %19) #10
  br label %_ZN5Ipopt8SmartPtrINS_6VectorEED2Ev.exit17

_ZN5Ipopt8SmartPtrINS_6VectorEED2Ev.exit17:       ; preds = %62, %57, %9
  %.09 = phi double [ 1.000000e+00, %9 ], [ %.0, %57 ], [ %.0, %62 ]
  ret double %.09
}